; Function Attrs: mustprogress uwtable
define void @_ZNK6google8protobuf10TextFormat17FieldValuePrinter9PrintBoolB5cxx11Eb(ptr noalias sret(%"class.std::__cxx11::basic_string") align 8 %agg.result, ptr nocapture nonnull readnone align 8 %this, i1 noundef zeroext %val) unnamed_addr #4 align 2 personality ptr @__gxx_personality_v0 {
entry:
  %generator = alloca %"class.google::protobuf::(anonymous namespace)::StringBaseTextGenerator", align 8
  store ptr getelementptr inbounds ({ [10 x ptr] }, ptr @_ZTVN6google8protobuf12_GLOBAL__N_123StringBaseTextGeneratorE, i64 0, i32 0, i64 2), ptr %generator, align 8
  %output_.i = getelementptr inbounds i8, ptr %generator, i64 8
  call void @_ZNSt7__cxx1112basic_stringIcSt11char_traitsIcESaIcEEC1Ev(ptr noundef nonnull align 8 dereferenceable(32) %output_.i) #34
  %vtable.i.i = load ptr, ptr %generator, align 8
  %vfn.i.i = getelementptr inbounds i8, ptr %vtable.i.i, i64 40
  %0 = load ptr, ptr %vfn.i.i, align 8
  %.str.3..str.4 = select i1 %val, ptr @.str.3, ptr @.str.4
  %. = select i1 %val, i64 4, i64 5
  invoke void %0(ptr noundef nonnull align 8 dereferenceable(8) %generator, ptr noundef nonnull %.str.3..str.4, i64 noundef %.)
          to label %invoke.cont unwind label %lpad

invoke.cont:                                      ; preds = %entry
  call void @_ZNSt7__cxx1112basic_stringIcSt11char_traitsIcESaIcEEC1EOS4_(ptr noundef nonnull align 8 dereferenceable(32) %agg.result, ptr noundef nonnull align 8 dereferenceable(32) %output_.i) #34
  store ptr getelementptr inbounds ({ [10 x ptr] }, ptr @_ZTVN6google8protobuf12_GLOBAL__N_123StringBaseTextGeneratorE, i64 0, i32 0, i64 2), ptr %generator, align 8
  call void @_ZNSt7__cxx1112basic_stringIcSt11char_traitsIcESaIcEED1Ev(ptr noundef nonnull align 8 dereferenceable(32) %output_.i) #34
  ret void

lpad:                                             ; preds = %entry
  %1 = landingpad { ptr, i32 }
          cleanup
  store ptr getelementptr inbounds ({ [10 x ptr] }, ptr @_ZTVN6google8protobuf12_GLOBAL__N_123StringBaseTextGeneratorE, i64 0, i32 0, i64 2), ptr %generator, align 8
  call void @_ZNSt7__cxx1112basic_stringIcSt11char_traitsIcESaIcEED1Ev(ptr noundef nonnull align 8 dereferenceable(32) %output_.i) #34
  resume { ptr, i32 } %1
}